; Function Attrs: mustprogress uwtable
define void @_ZNK19OpenColorIO_v2_5dev13LookTransform18createEditableCopyEv(ptr dead_on_unwind noalias writable writeonly sret(%"class.std::shared_ptr.0") align 8 captures(none) %0, ptr noundef nonnull readonly align 8 captures(none) dereferenceable(16) %1) unnamed_addr #0 align 2 personality ptr @__gxx_personality_v0 {
  %3 = alloca %"class.std::shared_ptr", align 8
  call void @llvm.lifetime.start.p0(i64 16, ptr nonnull %3) #23
  call void @_ZN19OpenColorIO_v2_5dev13LookTransform6CreateEv(ptr dead_on_unwind nonnull writable sret(%"class.std::shared_ptr") align 8 %3)
  %4 = getelementptr inbounds nuw i8, ptr %1, i64 8
  %5 = load ptr, ptr %4, align 8, !tbaa !34
  %6 = load ptr, ptr %3, align 8, !tbaa !3
  %7 = getelementptr inbounds nuw i8, ptr %6, i64 8
  %8 = load ptr, ptr %7, align 8, !tbaa !34
  %.not.i = icmp eq ptr %8, %5
  br i1 %.not.i, label %_ZNSt12__shared_ptrIN19OpenColorIO_v2_5dev13LookTransformELN9__gnu_cxx12_Lock_policyE2EED2Ev.exit, label %9

9:                                                ; preds = %2
  %10 = load i32, ptr %5, align 8, !tbaa !22
  store i32 %10, ptr %8, align 8, !tbaa !22
  %11 = getelementptr inbounds nuw i8, ptr %5, i64 8
  %12 = getelementptr inbounds nuw i8, ptr %8, i64 8
  invoke void @_ZNSt7__cxx1112basic_stringIcSt11char_traitsIcESaIcEE9_M_assignERKS4_(ptr noundef nonnull align 8 dereferenceable(32) %12, ptr noundef nonnull align 8 dereferenceable(32) %11)
          to label %.noexc unwind label %23

.noexc:                                           ; preds = %9
  %13 = getelementptr inbounds nuw i8, ptr %5, i64 40
  %14 = getelementptr inbounds nuw i8, ptr %8, i64 40
  invoke void @_ZNSt7__cxx1112basic_stringIcSt11char_traitsIcESaIcEE9_M_assignERKS4_(ptr noundef nonnull align 8 dereferenceable(32) %14, ptr noundef nonnull align 8 dereferenceable(32) %13)
          to label %.noexc2 unwind label %23

.noexc2:                                          ; preds = %.noexc
  %15 = getelementptr inbounds nuw i8, ptr %5, i64 72
  %16 = getelementptr inbounds nuw i8, ptr %8, i64 72
  invoke void @_ZNSt7__cxx1112basic_stringIcSt11char_traitsIcESaIcEE9_M_assignERKS4_(ptr noundef nonnull align 8 dereferenceable(32) %16, ptr noundef nonnull align 8 dereferenceable(32) %15)
          to label %.noexc3 unwind label %23

.noexc3:                                          ; preds = %.noexc2
  %17 = getelementptr inbounds nuw i8, ptr %5, i64 4
  %18 = load i8, ptr %17, align 4, !tbaa !30, !range !38, !noundef !39
  %19 = getelementptr inbounds nuw i8, ptr %8, i64 4
  store i8 %18, ptr %19, align 4, !tbaa !30
  br label %_ZNSt12__shared_ptrIN19OpenColorIO_v2_5dev13LookTransformELN9__gnu_cxx12_Lock_policyE2EED2Ev.exit

_ZNSt12__shared_ptrIN19OpenColorIO_v2_5dev13LookTransformELN9__gnu_cxx12_Lock_policyE2EED2Ev.exit: ; preds = %2, %.noexc3
  store ptr %6, ptr %0, align 8, !tbaa !40
  %20 = getelementptr inbounds nuw i8, ptr %0, i64 8
  %21 = getelementptr inbounds nuw i8, ptr %3, i64 8
  %22 = load ptr, ptr %21, align 8, !tbaa !11
  store ptr %22, ptr %20, align 8, !tbaa !11
  call void @llvm.lifetime.end.p0(i64 16, ptr nonnull %3) #23
  ret void

23:                                               ; preds = %.noexc2, %.noexc, %9
  %24 = landingpad { ptr, i32 }
          cleanup
  call void @_ZNSt12__shared_ptrIN19OpenColorIO_v2_5dev13LookTransformELN9__gnu_cxx12_Lock_policyE2EED2Ev(ptr noundef nonnull align 8 dereferenceable(16) %3) #23
  call void @llvm.lifetime.end.p0(i64 16, ptr nonnull %3) #23
  resume { ptr, i32 } %24
}